#include <math.h>
#include <stdio.h>
#include <stdlib.h>
#include <string.h>
#define LEN 100
#define ASCII 100
#define MAX_N 100
#define MAX_M 100
#define MAX 100
#define ASC 100
#define null 0
#define Len 100
#define shu 100
#define SUM 100
#define NUMBER 100
#define SIZE 100
#define X 100
#define Y 100
#define len 100
#define MAXN 100
#define MAXSIZE 100
#define maxrow 100
#define maxcol 100
#define num 100
#define mx 100
#define NUM 100
#define ROW 100
#define COL 100
#define SIZEE 100
#define MAX_LEN 100
#define LIU 100
#define maxsize 100
#define NUM 100
#define NO 100
#define Null 0
#define ID_DIGITS 100
#define INT_MAX 100
#define INT_MIN 100
#define FALSE 0
#define TRUE 1
struct student
{
	char a[100];
	struct student *next;
};

int main()
{
	struct student *p1,*p2;
	p1=(struct student*)malloc(len);
	p1->next=NULL;
	gets(p1->a);
	while((strcmp(p1->a,"end"))!=0)
	{
		p2=p1;
		p1=(struct student*)malloc(len);
		p1->next=p2;
		gets(p1->a);
	}
	p1=p1->next;
	while(p1!=NULL)
	{
		printf("%s\n",p1->a);
		p1=p1->next;
	}
	return 0;
}